; Function Attrs: nofree norecurse nosync nounwind memory(read, inaccessiblemem: none) uwtable
define i32 @Extra_bddSuppSize(ptr noundef readonly captures(none) %0, ptr noundef readonly %1) local_unnamed_addr #6 {
  %3 = getelementptr inbounds nuw i8, ptr %0, i64 40
  %4 = load ptr, ptr %3, align 8, !tbaa !34
  %.not5 = icmp eq ptr %1, %4
  br i1 %.not5, label %._crit_edge, label %.lr.ph

.lr.ph:                                           ; preds = %2, %.lr.ph
  %.07 = phi i32 [ %7, %.lr.ph ], [ 0, %2 ]
  %.046 = phi ptr [ %6, %.lr.ph ], [ %1, %2 ]
  %5 = getelementptr inbounds nuw i8, ptr %.046, i64 16
  %6 = load ptr, ptr %5, align 8, !tbaa !36
  %7 = add nuw nsw i32 %.07, 1
  %.not = icmp eq ptr %6, %4
  br i1 %.not, label %._crit_edge, label %.lr.ph, !llvm.loop !43

._crit_edge:                                      ; preds = %.lr.ph, %2
  %.0.lcssa = phi i32 [ 0, %2 ], [ %7, %.lr.ph ]
  ret i32 %.0.lcssa
}